target datalayout = "e-m:e-p270:32:32-p271:32:32-p272:64:64-i64:64-i128:128-f80:128-n8:16:32:64-S128"
target triple = "x86_64-pc-linux-gnu"

%"struct.std::_Rb_tree_key_compare" = type { %"struct.std::less" }
%"struct.std::less" = type { i8 }
%"struct.std::_Rb_tree_header" = type { %"struct.std::_Rb_tree_node_base", i64 }
%"struct.std::_Rb_tree_node_base" = type { i32, ptr, ptr, ptr }
%"struct.casadi::SundialsMemory" = type <{ %"struct.casadi::IntegratorMemory", ptr, ptr, ptr, ptr, ptr, ptr, i8, [7 x i8], ptr, ptr, ptr, ptr, ptr, ptr, ptr, ptr, i64, i64, i64, i64, i32, i32, double, double, double, double, i64, i64, i64, i64, i64, i64, i32, i32, double, double, double, double, i64, i64, i64, i64, i64, i64, i64, i64, ptr, ptr, i32, [4 x i8], ptr, i32, [4 x i8] }>
%"struct.casadi::IntegratorMemory" = type { %"struct.casadi::OracleMemory", i64, double, double, double }
%"struct.casadi::OracleMemory" = type { %"struct.casadi::FunctionMemory", ptr, ptr, ptr, ptr, %"class.std::vector.69" }
%"struct.casadi::FunctionMemory" = type { %"struct.casadi::ProtoFunctionMemory" }
%"struct.casadi::ProtoFunctionMemory" = type { %"class.std::map.64", ptr }
%"class.std::map.64" = type { %"class.std::_Rb_tree.65" }
%"class.std::_Rb_tree.65" = type { %"struct.std::_Rb_tree<std::__cxx11::basic_string<char>, std::pair<const std::__cxx11::basic_string<char>, casadi::FStats>, std::_Select1st<std::pair<const std::__cxx11::basic_string<char>, casadi::FStats>>, std::less<std::__cxx11::basic_string<char>>>::_Rb_tree_impl" }
%"struct.std::_Rb_tree<std::__cxx11::basic_string<char>, std::pair<const std::__cxx11::basic_string<char>, casadi::FStats>, std::_Select1st<std::pair<const std::__cxx11::basic_string<char>, casadi::FStats>>, std::less<std::__cxx11::basic_string<char>>>::_Rb_tree_impl" = type { %"struct.std::_Rb_tree_key_compare", %"struct.std::_Rb_tree_header" }
%"class.std::vector.69" = type { %"struct.std::_Vector_base.70" }
%"struct.std::_Vector_base.70" = type { %"struct.std::_Vector_base<casadi::LocalOracleMemory *, std::allocator<casadi::LocalOracleMemory *>>::_Vector_impl" }
%"struct.std::_Vector_base<casadi::LocalOracleMemory *, std::allocator<casadi::LocalOracleMemory *>>::_Vector_impl" = type { %"struct.std::_Vector_base<casadi::LocalOracleMemory *, std::allocator<casadi::LocalOracleMemory *>>::_Vector_impl_data" }
%"struct.std::_Vector_base<casadi::LocalOracleMemory *, std::allocator<casadi::LocalOracleMemory *>>::_Vector_impl_data" = type { ptr, ptr, ptr }

; Function Attrs: mustprogress nounwind uwtable
define void @_ZNK6casadi17SundialsInterface12save_offsetsEPNS_14SundialsMemoryE(ptr noundef nonnull align 8 dereferenceable(2120) %0, ptr noundef %1) #5 align 2 {
  %3 = alloca ptr, align 8
  %4 = alloca ptr, align 8
  store ptr %0, ptr %3, align 8
  store ptr %1, ptr %4, align 8
  %5 = load ptr, ptr %4, align 8
  %6 = getelementptr inbounds %"struct.casadi::SundialsMemory", ptr %5, i32 0, i32 29
  %7 = load i64, ptr %6, align 8
  %8 = load ptr, ptr %4, align 8
  %9 = getelementptr inbounds %"struct.casadi::SundialsMemory", ptr %8, i32 0, i32 41
  store i64 %7, ptr %9, align 8
  %10 = load ptr, ptr %4, align 8
  %11 = getelementptr inbounds %"struct.casadi::SundialsMemory", ptr %10, i32 0, i32 30
  %12 = load i64, ptr %11, align 8
  %13 = load ptr, ptr %4, align 8
  %14 = getelementptr inbounds %"struct.casadi::SundialsMemory", ptr %13, i32 0, i32 42
  store i64 %12, ptr %14, align 8
  %15 = load ptr, ptr %4, align 8
  %16 = getelementptr inbounds %"struct.casadi::SundialsMemory", ptr %15, i32 0, i32 31
  %17 = load i64, ptr %16, align 8
  %18 = load ptr, ptr %4, align 8
  %19 = getelementptr inbounds %"struct.casadi::SundialsMemory", ptr %18, i32 0, i32 43
  store i64 %17, ptr %19, align 8
  %20 = load ptr, ptr %4, align 8
  %21 = getelementptr inbounds %"struct.casadi::SundialsMemory", ptr %20, i32 0, i32 32
  %22 = load i64, ptr %21, align 8
  %23 = load ptr, ptr %4, align 8
  %24 = getelementptr inbounds %"struct.casadi::SundialsMemory", ptr %23, i32 0, i32 44
  store i64 %22, ptr %24, align 8
  %25 = load ptr, ptr %4, align 8
  %26 = getelementptr inbounds %"struct.casadi::SundialsMemory", ptr %25, i32 0, i32 39
  %27 = load i64, ptr %26, align 8
  %28 = load ptr, ptr %4, align 8
  %29 = getelementptr inbounds %"struct.casadi::SundialsMemory", ptr %28, i32 0, i32 45
  store i64 %27, ptr %29, align 8
  %30 = load ptr, ptr %4, align 8
  %31 = getelementptr inbounds %"struct.casadi::SundialsMemory", ptr %30, i32 0, i32 40
  %32 = load i64, ptr %31, align 8
  %33 = load ptr, ptr %4, align 8
  %34 = getelementptr inbounds %"struct.casadi::SundialsMemory", ptr %33, i32 0, i32 46
  store i64 %32, ptr %34, align 8
  ret void
}

; Function Attrs: mustprogress uwtable
define void @_ZNK6casadi17SundialsInterface11reset_statsEPNS_14SundialsMemoryE(ptr noundef nonnull align 8 dereferenceable(2120) %0, ptr noundef %1) #4 align 2 {
  %3 = alloca ptr, align 8
  %4 = alloca ptr, align 8
  store ptr %0, ptr %3, align 8
  store ptr %1, ptr %4, align 8
  %5 = load ptr, ptr %3, align 8
  %6 = load ptr, ptr %4, align 8
  %7 = getelementptr inbounds %"struct.casadi::SundialsMemory", ptr %6, i32 0, i32 20
  store i64 0, ptr %7, align 8
  %8 = load ptr, ptr %4, align 8
  %9 = getelementptr inbounds %"struct.casadi::SundialsMemory", ptr %8, i32 0, i32 19
  store i64 0, ptr %9, align 8
  %10 = load ptr, ptr %4, align 8
  %11 = getelementptr inbounds %"struct.casadi::SundialsMemory", ptr %10, i32 0, i32 18
  store i64 0, ptr %11, align 8
  %12 = load ptr, ptr %4, align 8
  %13 = getelementptr inbounds %"struct.casadi::SundialsMemory", ptr %12, i32 0, i32 17
  store i64 0, ptr %13, align 8
  %14 = load ptr, ptr %4, align 8
  %15 = getelementptr inbounds %"struct.casadi::SundialsMemory", ptr %14, i32 0, i32 22
  store i32 -1, ptr %15, align 4
  %16 = load ptr, ptr %4, align 8
  %17 = getelementptr inbounds %"struct.casadi::SundialsMemory", ptr %16, i32 0, i32 21
  store i32 -1, ptr %17, align 8
  %18 = load ptr, ptr %4, align 8
  %19 = getelementptr inbounds %"struct.casadi::SundialsMemory", ptr %18, i32 0, i32 26
  store double 0x7FF8000000000000, ptr %19, align 8
  %20 = load ptr, ptr %4, align 8
  %21 = getelementptr inbounds %"struct.casadi::SundialsMemory", ptr %20, i32 0, i32 25
  store double 0x7FF8000000000000, ptr %21, align 8
  %22 = load ptr, ptr %4, align 8
  %23 = getelementptr inbounds %"struct.casadi::SundialsMemory", ptr %22, i32 0, i32 24
  store double 0x7FF8000000000000, ptr %23, align 8
  %24 = load ptr, ptr %4, align 8
  %25 = getelementptr inbounds %"struct.casadi::SundialsMemory", ptr %24, i32 0, i32 23
  store double 0x7FF8000000000000, ptr %25, align 8
  %26 = load ptr, ptr %4, align 8
  %27 = getelementptr inbounds %"struct.casadi::SundialsMemory", ptr %26, i32 0, i32 28
  store i64 0, ptr %27, align 8
  %28 = load ptr, ptr %4, align 8
  %29 = getelementptr inbounds %"struct.casadi::SundialsMemory", ptr %28, i32 0, i32 27
  store i64 0, ptr %29, align 8
  %30 = load ptr, ptr %4, align 8
  %31 = getelementptr inbounds %"struct.casadi::SundialsMemory", ptr %30, i32 0, i32 32
  store i64 0, ptr %31, align 8
  %32 = load ptr, ptr %4, align 8
  %33 = getelementptr inbounds %"struct.casadi::SundialsMemory", ptr %32, i32 0, i32 31
  store i64 0, ptr %33, align 8
  %34 = load ptr, ptr %4, align 8
  %35 = getelementptr inbounds %"struct.casadi::SundialsMemory", ptr %34, i32 0, i32 30
  store i64 0, ptr %35, align 8
  %36 = load ptr, ptr %4, align 8
  %37 = getelementptr inbounds %"struct.casadi::SundialsMemory", ptr %36, i32 0, i32 29
  store i64 0, ptr %37, align 8
  %38 = load ptr, ptr %4, align 8
  %39 = getelementptr inbounds %"struct.casadi::SundialsMemory", ptr %38, i32 0, i32 34
  store i32 -1, ptr %39, align 4
  %40 = load ptr, ptr %4, align 8
  %41 = getelementptr inbounds %"struct.casadi::SundialsMemory", ptr %40, i32 0, i32 33
  store i32 -1, ptr %41, align 8
  %42 = load ptr, ptr %4, align 8
  %43 = getelementptr inbounds %"struct.casadi::SundialsMemory", ptr %42, i32 0, i32 38
  store double 0x7FF8000000000000, ptr %43, align 8
  %44 = load ptr, ptr %4, align 8
  %45 = getelementptr inbounds %"struct.casadi::SundialsMemory", ptr %44, i32 0, i32 37
  store double 0x7FF8000000000000, ptr %45, align 8
  %46 = load ptr, ptr %4, align 8
  %47 = getelementptr inbounds %"struct.casadi::SundialsMemory", ptr %46, i32 0, i32 36
  store double 0x7FF8000000000000, ptr %47, align 8
  %48 = load ptr, ptr %4, align 8
  %49 = getelementptr inbounds %"struct.casadi::SundialsMemory", ptr %48, i32 0, i32 35
  store double 0x7FF8000000000000, ptr %49, align 8
  %50 = load ptr, ptr %4, align 8
  %51 = getelementptr inbounds %"struct.casadi::SundialsMemory", ptr %50, i32 0, i32 40
  store i64 0, ptr %51, align 8
  %52 = load ptr, ptr %4, align 8
  %53 = getelementptr inbounds %"struct.casadi::SundialsMemory", ptr %52, i32 0, i32 39
  store i64 0, ptr %53, align 8
  %54 = load ptr, ptr %4, align 8
  call void @_ZNK6casadi17SundialsInterface12save_offsetsEPNS_14SundialsMemoryE(ptr noundef nonnull align 8 dereferenceable(2120) %5, ptr noundef %54)
  ret void
}