; Function Attrs: mustprogress nofree norecurse nosync nounwind willreturn memory(argmem: write) uwtable
define void @_ZNK6casadi17SundialsInterface11reset_statsEPNS_14SundialsMemoryE(ptr nocapture noundef nonnull readnone align 8 dereferenceable(2120) %0, ptr nocapture noundef writeonly %1) local_unnamed_addr #9 align 2 {
  %3 = getelementptr inbounds i8, ptr %1, i64 264
  %4 = getelementptr inbounds i8, ptr %1, i64 300
  tail call void @llvm.memset.p0.i64(ptr noundef nonnull align 8 dereferenceable(32) %3, i8 0, i64 32, i1 false)
  store i32 -1, ptr %4, align 4
  %5 = getelementptr inbounds i8, ptr %1, i64 296
  store i32 -1, ptr %5, align 8
  %6 = getelementptr inbounds i8, ptr %1, i64 320
  store <2 x double> <double 0x7FF8000000000000, double 0x7FF8000000000000>, ptr %6, align 8
  %7 = getelementptr inbounds i8, ptr %1, i64 304
  store <2 x double> <double 0x7FF8000000000000, double 0x7FF8000000000000>, ptr %7, align 8
  %8 = getelementptr inbounds i8, ptr %1, i64 336
  %9 = getelementptr inbounds i8, ptr %1, i64 388
  tail call void @llvm.memset.p0.i64(ptr noundef nonnull align 8 dereferenceable(48) %8, i8 0, i64 48, i1 false)
  store i32 -1, ptr %9, align 4
  %10 = getelementptr inbounds i8, ptr %1, i64 384
  store i32 -1, ptr %10, align 8
  %11 = getelementptr inbounds i8, ptr %1, i64 408
  store <2 x double> <double 0x7FF8000000000000, double 0x7FF8000000000000>, ptr %11, align 8
  %12 = getelementptr inbounds i8, ptr %1, i64 392
  store <2 x double> <double 0x7FF8000000000000, double 0x7FF8000000000000>, ptr %12, align 8
  %13 = getelementptr inbounds i8, ptr %1, i64 424
  tail call void @llvm.memset.p0.i64(ptr noundef nonnull align 8 dereferenceable(64) %13, i8 0, i64 64, i1 false)
  ret void
}